(dp0
I0
S'space - sci fi'
p1
sI1
S'american football'
p2
sI2
S'industry'
p3
sI3
S'japan'
p4
sI4
S'american eduacation'
p5
sI5
S'north carolina'
p6
sI6
S'cities - airports ?'
p7
sI7
S'sea - navigation'
p8
sI8
I8
sI9
S'USA'
p9
sI10
S'literature'
p10
sI11
S'arab culture'
p11
sI12
I12
sI13
I13
sI14
S'mathematics'
p12
sI15
I15
sI16
S'urban- construction'
p13
sI17
I17
sI18
S'south-east asia'
p14
sI19
I19
sI20
S'german'
p15
sI21
I21
sI22
I22
sI23
I23
sI24
S'vehicle - race'
p16
sI25
S'business - economy'
p17
sI26
I26
sI27
S'IT - startups - business'
p18
sI28
I28
sI29
S'music'
p19
sI30
I30
sI31
I31
sI32
I32
sI33
S'names'
p20
sI34
S'language - not english'
p21
sI35
S'french'
p22
sI36
I36
sI37
I37
sI38
S'law - politics'
p23
sI39
I39
sI40
S'health - medecine'
p24
sI41
S'security - military'
p25
sI42
I42
sI43
I43
sI44
S'medias'
p26
sI45
I45
sI46
S'china'
p27
sI47
I47
sI48
S'art - galleries'
p28
sI49
S'biology'
p29
sI50
I50
sI51
I51
sI52
I52
sI53
I53
sI54
I54
sI55
S'clothes - lifestyle'
p30
sI56
I56
sI57
S'transports'
p31
sI58
I58
sI59
I59
sI60
I60
sI61
S'religion'
p32
sI62
I62
sI63
I63
sI64
S'nature - colors'
p33
sI65
I65
sI66
I66
sI67
S'History - medieval'
p34
sI68
I68
sI69
S'sport - competition'
p35
sI70
I70
sI71
S'india'
p36
sI72
S'IT - web'
p37
sI73
S'landscapes - nature'
p38
sI74
I74
sI75
I75
sI76
I76
sI77
S'TV - cinema'
p39
sI78
S'everyday vocabulary'
p40
sI79
I79
sI80
I80
sI81
S'philosophy - sociology'
p41
sI82
I82
sI83
S'food'
p42
sI84
I84
sI85
S'south america'
p43
sI86
S'fantasy - games'
p44
sI87
I87
sI88
S'english culture'
p45
sI89
S'chemistry - nutrition'
p46
sI90
I90
sI91
I91
sI92
I92
sI93
I93
sI94
S'classical music - composers'
p47
sI95
I95
sI96
I96
sI97
S'science'
p48
sI98
I98
sI99
I99
s.